; Function Attrs: inlinehint mustprogress nounwind willreturn uwtable
define internal fastcc i32 @Bac_ObjAlloc(ptr noundef captures(none) %0, i32 noundef range(i32 -64, 128) %1, i32 noundef %2) unnamed_addr #11 {
  %4 = getelementptr i8, ptr %0, i64 84
  %.val = load i32, ptr %4, align 4, !tbaa !33
  switch i32 %1, label %69 [
    i32 1, label %5
    i32 2, label %36
  ]

5:                                                ; preds = %3
  %6 = getelementptr inbounds nuw i8, ptr %0, i64 32
  %7 = getelementptr inbounds nuw i8, ptr %0, i64 36
  %8 = load i32, ptr %7, align 4, !tbaa !22
  %9 = load i32, ptr %6, align 8, !tbaa !28
  %10 = icmp eq i32 %8, %9
  br i1 %10, label %11, label %.Vec_IntGrow.exit10_crit_edge.i

.Vec_IntGrow.exit10_crit_edge.i:                  ; preds = %5
  %.phi.trans.insert.i = getelementptr inbounds nuw i8, ptr %0, i64 40
  %.pre.i = load ptr, ptr %.phi.trans.insert.i, align 8, !tbaa !23
  br label %Vec_IntPush.exit

11:                                               ; preds = %5
  %12 = icmp slt i32 %8, 16
  br i1 %12, label %13, label %21

13:                                               ; preds = %11
  %14 = getelementptr inbounds nuw i8, ptr %0, i64 40
  %15 = load ptr, ptr %14, align 8, !tbaa !23
  %.not9.i.i = icmp eq ptr %15, null
  br i1 %.not9.i.i, label %18, label %16

16:                                               ; preds = %13
  %17 = tail call dereferenceable_or_null(64) ptr @realloc(ptr noundef nonnull %15, i64 noundef 64) #23
  br label %Vec_IntGrow.exit.i

18:                                               ; preds = %13
  %19 = tail call noalias dereferenceable_or_null(64) ptr @malloc(i64 noundef 64) #24
  br label %Vec_IntGrow.exit.i

Vec_IntGrow.exit.i:                               ; preds = %18, %16
  %20 = phi ptr [ %17, %16 ], [ %19, %18 ]
  store ptr %20, ptr %14, align 8, !tbaa !23
  store i32 16, ptr %6, align 8, !tbaa !28
  br label %Vec_IntPush.exit

21:                                               ; preds = %11
  %22 = shl nuw nsw i32 %8, 1
  %23 = getelementptr inbounds nuw i8, ptr %0, i64 40
  %24 = load ptr, ptr %23, align 8, !tbaa !23
  %.not9.i9.i = icmp eq ptr %24, null
  %25 = zext nneg i32 %22 to i64
  %26 = shl nuw nsw i64 %25, 2
  br i1 %.not9.i9.i, label %29, label %27

27:                                               ; preds = %21
  %28 = tail call ptr @realloc(ptr noundef nonnull %24, i64 noundef %26) #23
  br label %31

29:                                               ; preds = %21
  %30 = tail call noalias ptr @malloc(i64 noundef %26) #24
  br label %31

31:                                               ; preds = %29, %27
  %32 = phi ptr [ %28, %27 ], [ %30, %29 ]
  store ptr %32, ptr %23, align 8, !tbaa !23
  store i32 %22, ptr %6, align 8, !tbaa !28
  br label %Vec_IntPush.exit

Vec_IntPush.exit:                                 ; preds = %.Vec_IntGrow.exit10_crit_edge.i, %Vec_IntGrow.exit.i, %31
  %33 = phi ptr [ %.pre.i, %.Vec_IntGrow.exit10_crit_edge.i ], [ %32, %31 ], [ %20, %Vec_IntGrow.exit.i ]
  %34 = load i32, ptr %7, align 4, !tbaa !22
  %35 = add nsw i32 %34, 1
  store i32 %35, ptr %7, align 4, !tbaa !22
  br label %thread-pre-split

36:                                               ; preds = %3
  %37 = getelementptr inbounds nuw i8, ptr %0, i64 48
  %38 = getelementptr inbounds nuw i8, ptr %0, i64 52
  %39 = load i32, ptr %38, align 4, !tbaa !22
  %40 = load i32, ptr %37, align 8, !tbaa !28
  %41 = icmp eq i32 %39, %40
  br i1 %41, label %42, label %.Vec_IntGrow.exit10_crit_edge.i11

.Vec_IntGrow.exit10_crit_edge.i11:                ; preds = %36
  %.phi.trans.insert.i12 = getelementptr inbounds nuw i8, ptr %0, i64 56
  %.pre.i13 = load ptr, ptr %.phi.trans.insert.i12, align 8, !tbaa !23
  br label %Vec_IntPush.exit17

42:                                               ; preds = %36
  %43 = icmp slt i32 %39, 16
  br i1 %43, label %44, label %52

44:                                               ; preds = %42
  %45 = getelementptr inbounds nuw i8, ptr %0, i64 56
  %46 = load ptr, ptr %45, align 8, !tbaa !23
  %.not9.i.i15 = icmp eq ptr %46, null
  br i1 %.not9.i.i15, label %49, label %47

47:                                               ; preds = %44
  %48 = tail call dereferenceable_or_null(64) ptr @realloc(ptr noundef nonnull %46, i64 noundef 64) #23
  br label %Vec_IntGrow.exit.i16

49:                                               ; preds = %44
  %50 = tail call noalias dereferenceable_or_null(64) ptr @malloc(i64 noundef 64) #24
  br label %Vec_IntGrow.exit.i16

Vec_IntGrow.exit.i16:                             ; preds = %49, %47
  %51 = phi ptr [ %48, %47 ], [ %50, %49 ]
  store ptr %51, ptr %45, align 8, !tbaa !23
  store i32 16, ptr %37, align 8, !tbaa !28
  br label %Vec_IntPush.exit17

52:                                               ; preds = %42
  %53 = shl nuw nsw i32 %39, 1
  %54 = getelementptr inbounds nuw i8, ptr %0, i64 56
  %55 = load ptr, ptr %54, align 8, !tbaa !23
  %.not9.i9.i14 = icmp eq ptr %55, null
  %56 = zext nneg i32 %53 to i64
  %57 = shl nuw nsw i64 %56, 2
  br i1 %.not9.i9.i14, label %60, label %58

58:                                               ; preds = %52
  %59 = tail call ptr @realloc(ptr noundef nonnull %55, i64 noundef %57) #23
  br label %62

60:                                               ; preds = %52
  %61 = tail call noalias ptr @malloc(i64 noundef %57) #24
  br label %62

62:                                               ; preds = %60, %58
  %63 = phi ptr [ %59, %58 ], [ %61, %60 ]
  store ptr %63, ptr %54, align 8, !tbaa !23
  store i32 %53, ptr %37, align 8, !tbaa !28
  br label %Vec_IntPush.exit17

Vec_IntPush.exit17:                               ; preds = %.Vec_IntGrow.exit10_crit_edge.i11, %Vec_IntGrow.exit.i16, %62
  %64 = phi ptr [ %.pre.i13, %.Vec_IntGrow.exit10_crit_edge.i11 ], [ %63, %62 ], [ %51, %Vec_IntGrow.exit.i16 ]
  %65 = load i32, ptr %38, align 4, !tbaa !22
  %66 = add nsw i32 %65, 1
  store i32 %66, ptr %38, align 4, !tbaa !22
  br label %thread-pre-split

thread-pre-split:                                 ; preds = %Vec_IntPush.exit, %Vec_IntPush.exit17
  %.sink = phi i32 [ %34, %Vec_IntPush.exit ], [ %65, %Vec_IntPush.exit17 ]
  %.sink29 = phi ptr [ %33, %Vec_IntPush.exit ], [ %64, %Vec_IntPush.exit17 ]
  %67 = sext i32 %.sink to i64
  %68 = getelementptr inbounds i32, ptr %.sink29, i64 %67
  store i32 %.val, ptr %68, align 4, !tbaa !24
  %.pr = load i32, ptr %4, align 4, !tbaa !33
  br label %69

69:                                               ; preds = %thread-pre-split, %3
  %70 = phi i32 [ %.pr, %thread-pre-split ], [ %.val, %3 ]
  %71 = getelementptr inbounds nuw i8, ptr %0, i64 80
  %.tr = trunc nsw i32 %1 to i8
  %72 = shl i8 %.tr, 1
  %73 = load i32, ptr %71, align 8, !tbaa !32
  %74 = icmp eq i32 %70, %73
  br i1 %74, label %75, label %.Vec_StrGrow.exit10_crit_edge.i

.Vec_StrGrow.exit10_crit_edge.i:                  ; preds = %69
  %.phi.trans.insert.i18 = getelementptr inbounds nuw i8, ptr %0, i64 88
  %.pre.i19 = load ptr, ptr %.phi.trans.insert.i18, align 8, !tbaa !34
  br label %Vec_StrPush.exit

75:                                               ; preds = %69
  %76 = icmp slt i32 %70, 16
  br i1 %76, label %77, label %85

77:                                               ; preds = %75
  %78 = getelementptr inbounds nuw i8, ptr %0, i64 88
  %79 = load ptr, ptr %78, align 8, !tbaa !34
  %.not9.i.i21 = icmp eq ptr %79, null
  br i1 %.not9.i.i21, label %82, label %80

80:                                               ; preds = %77
  %81 = tail call dereferenceable_or_null(16) ptr @realloc(ptr noundef nonnull %79, i64 noundef 16) #23
  br label %Vec_StrGrow.exit.i

82:                                               ; preds = %77
  %83 = tail call noalias dereferenceable_or_null(16) ptr @malloc(i64 noundef 16) #24
  br label %Vec_StrGrow.exit.i

Vec_StrGrow.exit.i:                               ; preds = %82, %80
  %84 = phi ptr [ %81, %80 ], [ %83, %82 ]
  store ptr %84, ptr %78, align 8, !tbaa !34
  store i32 16, ptr %71, align 8, !tbaa !32
  br label %Vec_StrPush.exit

85:                                               ; preds = %75
  %86 = shl nuw nsw i32 %70, 1
  %87 = getelementptr inbounds nuw i8, ptr %0, i64 88
  %88 = load ptr, ptr %87, align 8, !tbaa !34
  %.not9.i9.i20 = icmp eq ptr %88, null
  %89 = zext nneg i32 %86 to i64
  br i1 %.not9.i9.i20, label %92, label %90

90:                                               ; preds = %85
  %91 = tail call ptr @realloc(ptr noundef nonnull %88, i64 noundef %89) #23
  br label %94

92:                                               ; preds = %85
  %93 = tail call noalias ptr @malloc(i64 noundef %89) #24
  br label %94

94:                                               ; preds = %92, %90
  %95 = phi ptr [ %91, %90 ], [ %93, %92 ]
  store ptr %95, ptr %87, align 8, !tbaa !34
  store i32 %86, ptr %71, align 8, !tbaa !32
  br label %Vec_StrPush.exit

Vec_StrPush.exit:                                 ; preds = %.Vec_StrGrow.exit10_crit_edge.i, %Vec_StrGrow.exit.i, %94
  %96 = phi ptr [ %.pre.i19, %.Vec_StrGrow.exit10_crit_edge.i ], [ %95, %94 ], [ %84, %Vec_StrGrow.exit.i ]
  %97 = load i32, ptr %4, align 4, !tbaa !33
  %98 = add nsw i32 %97, 1
  store i32 %98, ptr %4, align 4, !tbaa !33
  %99 = sext i32 %97 to i64
  %100 = getelementptr inbounds i8, ptr %96, i64 %99
  store i8 %72, ptr %100, align 1, !tbaa !25
  %101 = getelementptr inbounds nuw i8, ptr %0, i64 96
  %102 = getelementptr inbounds nuw i8, ptr %0, i64 100
  %103 = load i32, ptr %102, align 4, !tbaa !22
  %104 = load i32, ptr %101, align 8, !tbaa !28
  %105 = icmp eq i32 %103, %104
  br i1 %105, label %106, label %.Vec_IntGrow.exit10_crit_edge.i22

.Vec_IntGrow.exit10_crit_edge.i22:                ; preds = %Vec_StrPush.exit
  %.phi.trans.insert.i23 = getelementptr inbounds nuw i8, ptr %0, i64 104
  %.pre.i24 = load ptr, ptr %.phi.trans.insert.i23, align 8, !tbaa !23
  br label %Vec_IntPush.exit28

106:                                              ; preds = %Vec_StrPush.exit
  %107 = icmp slt i32 %103, 16
  br i1 %107, label %108, label %116

108:                                              ; preds = %106
  %109 = getelementptr inbounds nuw i8, ptr %0, i64 104
  %110 = load ptr, ptr %109, align 8, !tbaa !23
  %.not9.i.i26 = icmp eq ptr %110, null
  br i1 %.not9.i.i26, label %113, label %111

111:                                              ; preds = %108
  %112 = tail call dereferenceable_or_null(64) ptr @realloc(ptr noundef nonnull %110, i64 noundef 64) #23
  br label %Vec_IntGrow.exit.i27

113:                                              ; preds = %108
  %114 = tail call noalias dereferenceable_or_null(64) ptr @malloc(i64 noundef 64) #24
  br label %Vec_IntGrow.exit.i27

Vec_IntGrow.exit.i27:                             ; preds = %113, %111
  %115 = phi ptr [ %112, %111 ], [ %114, %113 ]
  store ptr %115, ptr %109, align 8, !tbaa !23
  store i32 16, ptr %101, align 8, !tbaa !28
  br label %Vec_IntPush.exit28

116:                                              ; preds = %106
  %117 = shl nuw nsw i32 %103, 1
  %118 = getelementptr inbounds nuw i8, ptr %0, i64 104
  %119 = load ptr, ptr %118, align 8, !tbaa !23
  %.not9.i9.i25 = icmp eq ptr %119, null
  %120 = zext nneg i32 %117 to i64
  %121 = shl nuw nsw i64 %120, 2
  br i1 %.not9.i9.i25, label %124, label %122

122:                                              ; preds = %116
  %123 = tail call ptr @realloc(ptr noundef nonnull %119, i64 noundef %121) #23
  br label %126

124:                                              ; preds = %116
  %125 = tail call noalias ptr @malloc(i64 noundef %121) #24
  br label %126

126:                                              ; preds = %124, %122
  %127 = phi ptr [ %123, %122 ], [ %125, %124 ]
  store ptr %127, ptr %118, align 8, !tbaa !23
  store i32 %117, ptr %101, align 8, !tbaa !28
  br label %Vec_IntPush.exit28

Vec_IntPush.exit28:                               ; preds = %.Vec_IntGrow.exit10_crit_edge.i22, %Vec_IntGrow.exit.i27, %126
  %128 = phi ptr [ %.pre.i24, %.Vec_IntGrow.exit10_crit_edge.i22 ], [ %127, %126 ], [ %115, %Vec_IntGrow.exit.i27 ]
  %129 = load i32, ptr %102, align 4, !tbaa !22
  %130 = add nsw i32 %129, 1
  store i32 %130, ptr %102, align 4, !tbaa !22
  %131 = sext i32 %129 to i64
  %132 = getelementptr inbounds i32, ptr %128, i64 %131
  store i32 %2, ptr %132, align 4, !tbaa !24
  ret i32 %.val
}